target datalayout = "e-m:e-p270:32:32-p271:32:32-p272:64:64-i64:64-i128:128-f80:128-n8:16:32:64-S128"
target triple = "x86_64-pc-linux-gnu"

%struct.ARKodeARKStepMemRec = type { ptr, ptr, i32, i32, i32, i32, i32, i32, ptr, ptr, ptr, ptr, ptr, ptr, i32, i32, i32, i32, ptr, ptr, ptr, ptr, i32, ptr, double, double, double, double, i32, double, double, double, double, double, double, i32, i64, i32, i32, i32, ptr, ptr, ptr, ptr, ptr, ptr, i32, ptr, ptr, ptr, ptr, ptr, ptr, i32, i32, i64, i64, i64, i64, i64, ptr, ptr, i32, i32, i32, double, double, ptr, i32, ptr, ptr }
%struct.ARKodeMemRec = type { ptr, double, ptr, i32, i32, double, double, ptr, i32, double, ptr, i32, i32, ptr, ptr, i32, ptr, ptr, i32, ptr, ptr, ptr, ptr, ptr, ptr, ptr, ptr, ptr, ptr, ptr, ptr, ptr, ptr, ptr, i32, ptr, ptr, i32, ptr, i32, ptr, ptr, ptr, ptr, ptr, ptr, ptr, ptr, ptr, ptr, ptr, ptr, ptr, ptr, ptr, ptr, ptr, ptr, ptr, ptr, ptr, ptr, ptr, ptr, ptr, ptr, i32, ptr, ptr, ptr, ptr, ptr, ptr, ptr, i32, ptr, ptr, ptr, i32, ptr, ptr, ptr, ptr, ptr, ptr, ptr, i32, i32, i32, i32, double, double, double, double, double, double, double, double, double, double, i32, ptr, i64, i32, i32, i32, i32, i64, i64, i32, i64, i64, i64, i64, i64, i64, i64, double, double, double, double, double, i32, double, double, i32, i32, i32, i32, i32, i32, i32, i32, ptr, i32, ptr, ptr, ptr, ptr, i32, i32, i32 }

@__func__.arkStep_NlsResidual_MassIdent_TrivialPredAutonomous = private unnamed_addr constant [52 x i8] c"arkStep_NlsResidual_MassIdent_TrivialPredAutonomous\00", align 1

; Function Attrs: nounwind uwtable
define i32 @arkStep_NlsResidual_MassIdent_TrivialPredAutonomous(ptr noundef %0, ptr noundef %1, ptr noundef %2) #0 {
  %4 = alloca i32, align 4
  %5 = alloca ptr, align 8
  %6 = alloca ptr, align 8
  %7 = alloca ptr, align 8
  %8 = alloca ptr, align 8
  %9 = alloca ptr, align 8
  %10 = alloca i32, align 4
  %11 = alloca i32, align 4
  %12 = alloca [3 x double], align 16
  %13 = alloca [3 x ptr], align 16
  %14 = alloca i32, align 4
  store ptr %0, ptr %5, align 8, !tbaa !34
  store ptr %1, ptr %6, align 8, !tbaa !34
  store ptr %2, ptr %7, align 8, !tbaa !36
  call void @llvm.lifetime.start.p0(i64 8, ptr %8) #4
  call void @llvm.lifetime.start.p0(i64 8, ptr %9) #4
  call void @llvm.lifetime.start.p0(i64 4, ptr %10) #4
  call void @llvm.lifetime.start.p0(i64 4, ptr %11) #4
  call void @llvm.lifetime.start.p0(i64 24, ptr %12) #4
  call void @llvm.lifetime.start.p0(i64 24, ptr %13) #4
  %15 = load ptr, ptr %7, align 8, !tbaa !36
  %16 = call i32 @arkStep_AccessARKODEStepMem(ptr noundef %15, ptr noundef @__func__.arkStep_NlsResidual_MassIdent_TrivialPredAutonomous, ptr noundef %8, ptr noundef %9)
  store i32 %16, ptr %10, align 4, !tbaa !10
  %17 = load i32, ptr %10, align 4, !tbaa !10
  %18 = icmp ne i32 %17, 0
  br i1 %18, label %19, label %21

19:                                               ; preds = %3
  %20 = load i32, ptr %10, align 4, !tbaa !10
  store i32 %20, ptr %4, align 4
  store i32 1, ptr %14, align 4
  br label %124

21:                                               ; preds = %3
  %22 = load ptr, ptr %9, align 8, !tbaa !20
  %23 = getelementptr inbounds nuw %struct.ARKodeARKStepMemRec, ptr %22, i32 0, i32 12
  %24 = load ptr, ptr %23, align 8, !tbaa !45
  %25 = load ptr, ptr %5, align 8, !tbaa !34
  %26 = load ptr, ptr %8, align 8, !tbaa !3
  %27 = getelementptr inbounds nuw %struct.ARKodeMemRec, ptr %26, i32 0, i32 75
  %28 = load ptr, ptr %27, align 8, !tbaa !46
  call void @N_VLinearSum(double noundef 1.000000e+00, ptr noundef %24, double noundef 1.000000e+00, ptr noundef %25, ptr noundef %28)
  %29 = load ptr, ptr %9, align 8, !tbaa !20
  %30 = getelementptr inbounds nuw %struct.ARKodeARKStepMemRec, ptr %29, i32 0, i32 21
  %31 = load ptr, ptr %30, align 8, !tbaa !22
  %32 = call i32 @SUNNonlinSolGetCurIter(ptr noundef %31, ptr noundef %11)
  store i32 %32, ptr %10, align 4, !tbaa !10
  %33 = load i32, ptr %10, align 4, !tbaa !10
  %34 = icmp ne i32 %33, 0
  br i1 %34, label %35, label %36

35:                                               ; preds = %21
  store i32 -32, ptr %4, align 4
  store i32 1, ptr %14, align 4
  br label %124

36:                                               ; preds = %21
  %37 = load i32, ptr %11, align 4, !tbaa !10
  %38 = icmp eq i32 %37, 0
  br i1 %38, label %39, label %57

39:                                               ; preds = %36
  %40 = load ptr, ptr %9, align 8, !tbaa !20
  %41 = getelementptr inbounds nuw %struct.ARKodeARKStepMemRec, ptr %40, i32 0, i32 40
  %42 = load ptr, ptr %41, align 8, !tbaa !52
  %43 = icmp ne ptr %42, null
  br i1 %43, label %44, label %57

44:                                               ; preds = %39
  %45 = load ptr, ptr %9, align 8, !tbaa !20
  %46 = getelementptr inbounds nuw %struct.ARKodeARKStepMemRec, ptr %45, i32 0, i32 40
  %47 = load ptr, ptr %46, align 8, !tbaa !52
  %48 = load ptr, ptr %9, align 8, !tbaa !20
  %49 = getelementptr inbounds nuw %struct.ARKodeARKStepMemRec, ptr %48, i32 0, i32 9
  %50 = load ptr, ptr %49, align 8, !tbaa !53
  %51 = load ptr, ptr %9, align 8, !tbaa !20
  %52 = getelementptr inbounds nuw %struct.ARKodeARKStepMemRec, ptr %51, i32 0, i32 16
  %53 = load i32, ptr %52, align 8, !tbaa !54
  %54 = sext i32 %53 to i64
  %55 = getelementptr inbounds ptr, ptr %50, i64 %54
  %56 = load ptr, ptr %55, align 8, !tbaa !34
  call void @N_VScale(double noundef 1.000000e+00, ptr noundef %47, ptr noundef %56)
  br label %92

57:                                               ; preds = %39, %36
  %58 = load ptr, ptr %9, align 8, !tbaa !20
  %59 = getelementptr inbounds nuw %struct.ARKodeARKStepMemRec, ptr %58, i32 0, i32 23
  %60 = load ptr, ptr %59, align 8, !tbaa !33
  %61 = load ptr, ptr %8, align 8, !tbaa !3
  %62 = getelementptr inbounds nuw %struct.ARKodeMemRec, ptr %61, i32 0, i32 98
  %63 = load double, ptr %62, align 8, !tbaa !55
  %64 = load ptr, ptr %8, align 8, !tbaa !3
  %65 = getelementptr inbounds nuw %struct.ARKodeMemRec, ptr %64, i32 0, i32 75
  %66 = load ptr, ptr %65, align 8, !tbaa !46
  %67 = load ptr, ptr %9, align 8, !tbaa !20
  %68 = getelementptr inbounds nuw %struct.ARKodeARKStepMemRec, ptr %67, i32 0, i32 9
  %69 = load ptr, ptr %68, align 8, !tbaa !53
  %70 = load ptr, ptr %9, align 8, !tbaa !20
  %71 = getelementptr inbounds nuw %struct.ARKodeARKStepMemRec, ptr %70, i32 0, i32 16
  %72 = load i32, ptr %71, align 8, !tbaa !54
  %73 = sext i32 %72 to i64
  %74 = getelementptr inbounds ptr, ptr %69, i64 %73
  %75 = load ptr, ptr %74, align 8, !tbaa !34
  %76 = load ptr, ptr %8, align 8, !tbaa !3
  %77 = getelementptr inbounds nuw %struct.ARKodeMemRec, ptr %76, i32 0, i32 2
  %78 = load ptr, ptr %77, align 8, !tbaa !56
  %79 = call i32 %60(double noundef %63, ptr noundef %66, ptr noundef %75, ptr noundef %78)
  store i32 %79, ptr %10, align 4, !tbaa !10
  %80 = load ptr, ptr %9, align 8, !tbaa !20
  %81 = getelementptr inbounds nuw %struct.ARKodeARKStepMemRec, ptr %80, i32 0, i32 56
  %82 = load i64, ptr %81, align 8, !tbaa !57
  %83 = add nsw i64 %82, 1
  store i64 %83, ptr %81, align 8, !tbaa !57
  %84 = load i32, ptr %10, align 4, !tbaa !10
  %85 = icmp slt i32 %84, 0
  br i1 %85, label %86, label %87

86:                                               ; preds = %57
  store i32 -8, ptr %4, align 4
  store i32 1, ptr %14, align 4
  br label %124

87:                                               ; preds = %57
  %88 = load i32, ptr %10, align 4, !tbaa !10
  %89 = icmp sgt i32 %88, 0
  br i1 %89, label %90, label %91

90:                                               ; preds = %87
  store i32 9, ptr %4, align 4
  store i32 1, ptr %14, align 4
  br label %124

91:                                               ; preds = %87
  br label %92

92:                                               ; preds = %91, %44
  %93 = getelementptr inbounds [3 x double], ptr %12, i64 0, i64 0
  store double 1.000000e+00, ptr %93, align 16, !tbaa !35
  %94 = load ptr, ptr %5, align 8, !tbaa !34
  %95 = getelementptr inbounds [3 x ptr], ptr %13, i64 0, i64 0
  store ptr %94, ptr %95, align 16, !tbaa !34
  %96 = getelementptr inbounds [3 x double], ptr %12, i64 0, i64 1
  store double -1.000000e+00, ptr %96, align 8, !tbaa !35
  %97 = load ptr, ptr %9, align 8, !tbaa !20
  %98 = getelementptr inbounds nuw %struct.ARKodeARKStepMemRec, ptr %97, i32 0, i32 11
  %99 = load ptr, ptr %98, align 8, !tbaa !58
  %100 = getelementptr inbounds [3 x ptr], ptr %13, i64 0, i64 1
  store ptr %99, ptr %100, align 8, !tbaa !34
  %101 = load ptr, ptr %9, align 8, !tbaa !20
  %102 = getelementptr inbounds nuw %struct.ARKodeARKStepMemRec, ptr %101, i32 0, i32 24
  %103 = load double, ptr %102, align 8, !tbaa !59
  %104 = fneg double %103
  %105 = getelementptr inbounds [3 x double], ptr %12, i64 0, i64 2
  store double %104, ptr %105, align 16, !tbaa !35
  %106 = load ptr, ptr %9, align 8, !tbaa !20
  %107 = getelementptr inbounds nuw %struct.ARKodeARKStepMemRec, ptr %106, i32 0, i32 9
  %108 = load ptr, ptr %107, align 8, !tbaa !53
  %109 = load ptr, ptr %9, align 8, !tbaa !20
  %110 = getelementptr inbounds nuw %struct.ARKodeARKStepMemRec, ptr %109, i32 0, i32 16
  %111 = load i32, ptr %110, align 8, !tbaa !54
  %112 = sext i32 %111 to i64
  %113 = getelementptr inbounds ptr, ptr %108, i64 %112
  %114 = load ptr, ptr %113, align 8, !tbaa !34
  %115 = getelementptr inbounds [3 x ptr], ptr %13, i64 0, i64 2
  store ptr %114, ptr %115, align 16, !tbaa !34
  %116 = getelementptr inbounds [3 x double], ptr %12, i64 0, i64 0
  %117 = getelementptr inbounds [3 x ptr], ptr %13, i64 0, i64 0
  %118 = load ptr, ptr %6, align 8, !tbaa !34
  %119 = call i32 @N_VLinearCombination(i32 noundef 3, ptr noundef %116, ptr noundef %117, ptr noundef %118)
  store i32 %119, ptr %10, align 4, !tbaa !10
  %120 = load i32, ptr %10, align 4, !tbaa !10
  %121 = icmp ne i32 %120, 0
  br i1 %121, label %122, label %123

122:                                              ; preds = %92
  store i32 -28, ptr %4, align 4
  store i32 1, ptr %14, align 4
  br label %124

123:                                              ; preds = %92
  store i32 0, ptr %4, align 4
  store i32 1, ptr %14, align 4
  br label %124

124:                                              ; preds = %123, %122, %90, %86, %35, %19
  call void @llvm.lifetime.end.p0(i64 24, ptr %13) #4
  call void @llvm.lifetime.end.p0(i64 24, ptr %12) #4
  call void @llvm.lifetime.end.p0(i64 4, ptr %11) #4
  call void @llvm.lifetime.end.p0(i64 4, ptr %10) #4
  call void @llvm.lifetime.end.p0(i64 8, ptr %9) #4
  call void @llvm.lifetime.end.p0(i64 8, ptr %8) #4
  %125 = load i32, ptr %4, align 4
  ret i32 %125
}